target datalayout = "e-m:e-p270:32:32-p271:32:32-p272:64:64-i64:64-i128:128-f80:128-n8:16:32:64-S128"
target triple = "x86_64-pc-linux-gnu"

%struct._LocaleLMBCSGrpMap = type { ptr, i8 }
%struct.UConverter = type { ptr, ptr, ptr, ptr, ptr, ptr, ptr, i32, i8, i8, i8, i8, i8, [7 x i8], i32, i32, i32, i32, i8, i8, i8, i8, i8, i8, i8, i8, [8 x i8], [32 x i8], [2 x i16], [2 x i16], [32 x i16], i32, [19 x i16], [31 x i8], i8, i8, i8, i32 }
%struct.UConverterDataLMBCS = type { [20 x ptr], i8, i8 }
%struct.UConverterNamePieces = type { [60 x i8], [157 x i8], i32 }
%struct.UConverterLoadArgs = type { i32, i32, i8, i8, i16, i32, ptr, ptr, ptr }

; Function Attrs: mustprogress nounwind uwtable
define internal noundef zeroext i8 @_ZL15FindLMBCSLocalePKc(ptr noundef %0) #6 {
  %2 = alloca i8, align 1
  %3 = alloca ptr, align 8
  %4 = alloca ptr, align 8
  %5 = alloca i32, align 4
  store ptr %0, ptr %3, align 8, !tbaa !25
  call void @llvm.lifetime.start.p0(i64 8, ptr %4) #9
  store ptr @_ZL17LocaleLMBCSGrpMap, ptr %4, align 8, !tbaa !66
  %6 = load ptr, ptr %3, align 8, !tbaa !25
  %7 = icmp ne ptr %6, null
  br i1 %7, label %8, label %12

8:                                                ; preds = %1
  %9 = load ptr, ptr %3, align 8, !tbaa !25
  %10 = load i8, ptr %9, align 1, !tbaa !15
  %11 = icmp ne i8 %10, 0
  br i1 %11, label %13, label %12

12:                                               ; preds = %8, %1
  store i8 0, ptr %2, align 1
  store i32 1, ptr %5, align 4
  br label %61

13:                                               ; preds = %8
  br label %14

14:                                               ; preds = %57, %13
  %15 = load ptr, ptr %4, align 8, !tbaa !66
  %16 = getelementptr inbounds nuw %struct._LocaleLMBCSGrpMap, ptr %15, i32 0, i32 0
  %17 = load ptr, ptr %16, align 8, !tbaa !68
  %18 = icmp ne ptr %17, null
  br i1 %18, label %19, label %60

19:                                               ; preds = %14
  %20 = load ptr, ptr %4, align 8, !tbaa !66
  %21 = getelementptr inbounds nuw %struct._LocaleLMBCSGrpMap, ptr %20, i32 0, i32 0
  %22 = load ptr, ptr %21, align 8, !tbaa !68
  %23 = load i8, ptr %22, align 1, !tbaa !15
  %24 = sext i8 %23 to i32
  %25 = load ptr, ptr %3, align 8, !tbaa !25
  %26 = load i8, ptr %25, align 1, !tbaa !15
  %27 = sext i8 %26 to i32
  %28 = icmp eq i32 %24, %27
  br i1 %28, label %29, label %45

29:                                               ; preds = %19
  %30 = load ptr, ptr %4, align 8, !tbaa !66
  %31 = getelementptr inbounds nuw %struct._LocaleLMBCSGrpMap, ptr %30, i32 0, i32 0
  %32 = load ptr, ptr %31, align 8, !tbaa !68
  %33 = load ptr, ptr %3, align 8, !tbaa !25
  %34 = load ptr, ptr %4, align 8, !tbaa !66
  %35 = getelementptr inbounds nuw %struct._LocaleLMBCSGrpMap, ptr %34, i32 0, i32 0
  %36 = load ptr, ptr %35, align 8, !tbaa !68
  %37 = call i64 @strlen(ptr noundef %36) #11
  %38 = call i32 @strncmp(ptr noundef %32, ptr noundef %33, i64 noundef %37) #11
  %39 = icmp eq i32 %38, 0
  br i1 %39, label %40, label %44

40:                                               ; preds = %29
  %41 = load ptr, ptr %4, align 8, !tbaa !66
  %42 = getelementptr inbounds nuw %struct._LocaleLMBCSGrpMap, ptr %41, i32 0, i32 1
  %43 = load i8, ptr %42, align 8, !tbaa !70
  store i8 %43, ptr %2, align 1
  store i32 1, ptr %5, align 4
  br label %61

44:                                               ; preds = %29
  br label %57

45:                                               ; preds = %19
  %46 = load ptr, ptr %4, align 8, !tbaa !66
  %47 = getelementptr inbounds nuw %struct._LocaleLMBCSGrpMap, ptr %46, i32 0, i32 0
  %48 = load ptr, ptr %47, align 8, !tbaa !68
  %49 = load i8, ptr %48, align 1, !tbaa !15
  %50 = sext i8 %49 to i32
  %51 = load ptr, ptr %3, align 8, !tbaa !25
  %52 = load i8, ptr %51, align 1, !tbaa !15
  %53 = sext i8 %52 to i32
  %54 = icmp sgt i32 %50, %53
  br i1 %54, label %55, label %56

55:                                               ; preds = %45
  br label %60

56:                                               ; preds = %45
  br label %57

57:                                               ; preds = %56, %44
  %58 = load ptr, ptr %4, align 8, !tbaa !66
  %59 = getelementptr inbounds nuw %struct._LocaleLMBCSGrpMap, ptr %58, i32 1
  store ptr %59, ptr %4, align 8, !tbaa !66
  br label %14, !llvm.loop !71

60:                                               ; preds = %55, %14
  store i8 1, ptr %2, align 1
  store i32 1, ptr %5, align 4
  br label %61

61:                                               ; preds = %60, %40, %12
  call void @llvm.lifetime.end.p0(i64 8, ptr %4) #9
  %62 = load i8, ptr %2, align 1
  ret i8 %62
}

; Function Attrs: mustprogress uwtable
define internal void @_ZL11_LMBCSCloseP10UConverter(ptr noundef %0) #0 {
  %2 = alloca ptr, align 8
  %3 = alloca i8, align 1
  %4 = alloca ptr, align 8
  store ptr %0, ptr %2, align 8, !tbaa !3
  %5 = load ptr, ptr %2, align 8, !tbaa !3
  %6 = getelementptr inbounds nuw %struct.UConverter, ptr %5, i32 0, i32 2
  %7 = load ptr, ptr %6, align 8, !tbaa !9
  %8 = icmp ne ptr %7, null
  br i1 %8, label %9, label %48

9:                                                ; preds = %1
  call void @llvm.lifetime.start.p0(i64 1, ptr %3) #9
  call void @llvm.lifetime.start.p0(i64 8, ptr %4) #9
  %10 = load ptr, ptr %2, align 8, !tbaa !3
  %11 = getelementptr inbounds nuw %struct.UConverter, ptr %10, i32 0, i32 2
  %12 = load ptr, ptr %11, align 8, !tbaa !9
  store ptr %12, ptr %4, align 8, !tbaa !8
  store i8 0, ptr %3, align 1, !tbaa !15
  br label %13

13:                                               ; preds = %33, %9
  %14 = load i8, ptr %3, align 1, !tbaa !15
  %15 = zext i8 %14 to i32
  %16 = icmp sle i32 %15, 19
  br i1 %16, label %17, label %36

17:                                               ; preds = %13
  %18 = load ptr, ptr %4, align 8, !tbaa !8
  %19 = getelementptr inbounds nuw %struct.UConverterDataLMBCS, ptr %18, i32 0, i32 0
  %20 = load i8, ptr %3, align 1, !tbaa !15
  %21 = zext i8 %20 to i64
  %22 = getelementptr inbounds nuw [20 x ptr], ptr %19, i64 0, i64 %21
  %23 = load ptr, ptr %22, align 8, !tbaa !16
  %24 = icmp ne ptr %23, null
  br i1 %24, label %25, label %32

25:                                               ; preds = %17
  %26 = load ptr, ptr %4, align 8, !tbaa !8
  %27 = getelementptr inbounds nuw %struct.UConverterDataLMBCS, ptr %26, i32 0, i32 0
  %28 = load i8, ptr %3, align 1, !tbaa !15
  %29 = zext i8 %28 to i64
  %30 = getelementptr inbounds nuw [20 x ptr], ptr %27, i64 0, i64 %29
  %31 = load ptr, ptr %30, align 8, !tbaa !16
  call void @ucnv_unloadSharedDataIfReady_77(ptr noundef %31)
  br label %32

32:                                               ; preds = %25, %17
  br label %33

33:                                               ; preds = %32
  %34 = load i8, ptr %3, align 1, !tbaa !15
  %35 = add i8 %34, 1
  store i8 %35, ptr %3, align 1, !tbaa !15
  br label %13, !llvm.loop !17

36:                                               ; preds = %13
  %37 = load ptr, ptr %2, align 8, !tbaa !3
  %38 = getelementptr inbounds nuw %struct.UConverter, ptr %37, i32 0, i32 10
  %39 = load i8, ptr %38, align 2, !tbaa !19
  %40 = icmp ne i8 %39, 0
  br i1 %40, label %47, label %41

41:                                               ; preds = %36
  %42 = load ptr, ptr %2, align 8, !tbaa !3
  %43 = getelementptr inbounds nuw %struct.UConverter, ptr %42, i32 0, i32 2
  %44 = load ptr, ptr %43, align 8, !tbaa !9
  call void @uprv_free_77(ptr noundef %44)
  %45 = load ptr, ptr %2, align 8, !tbaa !3
  %46 = getelementptr inbounds nuw %struct.UConverter, ptr %45, i32 0, i32 2
  store ptr null, ptr %46, align 8, !tbaa !9
  br label %47

47:                                               ; preds = %41, %36
  call void @llvm.lifetime.end.p0(i64 8, ptr %4) #9
  call void @llvm.lifetime.end.p0(i64 1, ptr %3) #9
  br label %48

48:                                               ; preds = %47, %1
  ret void
}

; Function Attrs: inlinehint mustprogress nounwind uwtable
define internal noundef signext i8 @_ZL9U_FAILURE10UErrorCode(i32 noundef %0) #5 {
  %2 = alloca i32, align 4
  store i32 %0, ptr %2, align 4, !tbaa !26
  %3 = load i32, ptr %2, align 4, !tbaa !26
  %4 = icmp sgt i32 %3, 0
  %5 = zext i1 %4 to i8
  ret i8 %5
}

; Function Attrs: inlinehint mustprogress nounwind uwtable
define internal noundef signext i8 @_ZL9U_SUCCESS10UErrorCode(i32 noundef %0) #5 {
  %2 = alloca i32, align 4
  store i32 %0, ptr %2, align 4, !tbaa !26
  %3 = load i32, ptr %2, align 4, !tbaa !26
  %4 = icmp sle i32 %3, 0
  %5 = zext i1 %4 to i8
  ret i8 %5
}

; Function Attrs: mustprogress uwtable
define internal void @_ZL16_LMBCSOpenWorkerP10UConverterP18UConverterLoadArgsP10UErrorCodeh(ptr noundef %0, ptr noundef %1, ptr noundef %2, i8 noundef zeroext %3) #0 {
  %5 = alloca ptr, align 8
  %6 = alloca ptr, align 8
  %7 = alloca ptr, align 8
  %8 = alloca i8, align 1
  %9 = alloca ptr, align 8
  %10 = alloca %struct.UConverterNamePieces, align 4
  %11 = alloca %struct.UConverterLoadArgs, align 8
  %12 = alloca i8, align 1
  %13 = alloca i32, align 4
  store ptr %0, ptr %5, align 8, !tbaa !3
  store ptr %1, ptr %6, align 8, !tbaa !8
  store ptr %2, ptr %7, align 8, !tbaa !8
  store i8 %3, ptr %8, align 1, !tbaa !15
  call void @llvm.lifetime.start.p0(i64 8, ptr %9) #9
  %14 = call noalias ptr @uprv_malloc_77(i64 noundef 168) #10
  store ptr %14, ptr %9, align 8, !tbaa !8
  %15 = load ptr, ptr %9, align 8, !tbaa !8
  %16 = load ptr, ptr %5, align 8, !tbaa !3
  %17 = getelementptr inbounds nuw %struct.UConverter, ptr %16, i32 0, i32 2
  store ptr %15, ptr %17, align 8, !tbaa !9
  %18 = load ptr, ptr %9, align 8, !tbaa !8
  %19 = icmp ne ptr %18, null
  br i1 %19, label %20, label %85

20:                                               ; preds = %4
  call void @llvm.lifetime.start.p0(i64 224, ptr %10) #9
  call void @llvm.lifetime.start.p0(i64 40, ptr %11) #9
  call void @llvm.memset.p0.i64(ptr align 8 %11, i8 0, i64 40, i1 false)
  %21 = getelementptr inbounds %struct.UConverterLoadArgs, ptr %11, i32 0, i32 0
  store i32 40, ptr %21, align 8
  call void @llvm.lifetime.start.p0(i64 1, ptr %12) #9
  %22 = load ptr, ptr %9, align 8, !tbaa !8
  call void @llvm.memset.p0.i64(ptr align 8 %22, i8 0, i64 168, i1 false)
  %23 = load ptr, ptr %6, align 8, !tbaa !8
  %24 = getelementptr inbounds nuw %struct.UConverterLoadArgs, ptr %23, i32 0, i32 2
  %25 = load i8, ptr %24, align 8, !tbaa !62
  %26 = getelementptr inbounds nuw %struct.UConverterLoadArgs, ptr %11, i32 0, i32 2
  store i8 %25, ptr %26, align 8, !tbaa !62
  store i8 0, ptr %12, align 1, !tbaa !15
  br label %27

27:                                               ; preds = %57, %20
  %28 = load i8, ptr %12, align 1, !tbaa !15
  %29 = zext i8 %28 to i32
  %30 = icmp sle i32 %29, 19
  br i1 %30, label %31, label %36

31:                                               ; preds = %27
  %32 = load ptr, ptr %7, align 8, !tbaa !8
  %33 = load i32, ptr %32, align 4, !tbaa !26
  %34 = call noundef signext i8 @_ZL9U_SUCCESS10UErrorCode(i32 noundef %33)
  %35 = icmp ne i8 %34, 0
  br label %36

36:                                               ; preds = %31, %27
  %37 = phi i1 [ false, %27 ], [ %35, %31 ]
  br i1 %37, label %38, label %60

38:                                               ; preds = %36
  %39 = load i8, ptr %12, align 1, !tbaa !15
  %40 = zext i8 %39 to i64
  %41 = getelementptr inbounds nuw [20 x ptr], ptr @_ZL20OptGroupByteToCPName, i64 0, i64 %40
  %42 = load ptr, ptr %41, align 8, !tbaa !25
  %43 = icmp ne ptr %42, null
  br i1 %43, label %44, label %56

44:                                               ; preds = %38
  %45 = load i8, ptr %12, align 1, !tbaa !15
  %46 = zext i8 %45 to i64
  %47 = getelementptr inbounds nuw [20 x ptr], ptr @_ZL20OptGroupByteToCPName, i64 0, i64 %46
  %48 = load ptr, ptr %47, align 8, !tbaa !25
  %49 = load ptr, ptr %7, align 8, !tbaa !8
  %50 = call ptr @ucnv_loadSharedData_77(ptr noundef %48, ptr noundef %10, ptr noundef %11, ptr noundef %49)
  %51 = load ptr, ptr %9, align 8, !tbaa !8
  %52 = getelementptr inbounds nuw %struct.UConverterDataLMBCS, ptr %51, i32 0, i32 0
  %53 = load i8, ptr %12, align 1, !tbaa !15
  %54 = zext i8 %53 to i64
  %55 = getelementptr inbounds nuw [20 x ptr], ptr %52, i64 0, i64 %54
  store ptr %50, ptr %55, align 8, !tbaa !16
  br label %56

56:                                               ; preds = %44, %38
  br label %57

57:                                               ; preds = %56
  %58 = load i8, ptr %12, align 1, !tbaa !15
  %59 = add i8 %58, 1
  store i8 %59, ptr %12, align 1, !tbaa !15
  br label %27, !llvm.loop !64

60:                                               ; preds = %36
  %61 = load ptr, ptr %7, align 8, !tbaa !8
  %62 = load i32, ptr %61, align 4, !tbaa !26
  %63 = call noundef signext i8 @_ZL9U_FAILURE10UErrorCode(i32 noundef %62)
  %64 = icmp ne i8 %63, 0
  br i1 %64, label %70, label %65

65:                                               ; preds = %60
  %66 = load ptr, ptr %6, align 8, !tbaa !8
  %67 = getelementptr inbounds nuw %struct.UConverterLoadArgs, ptr %66, i32 0, i32 2
  %68 = load i8, ptr %67, align 8, !tbaa !62
  %69 = icmp ne i8 %68, 0
  br i1 %69, label %70, label %72

70:                                               ; preds = %65, %60
  %71 = load ptr, ptr %5, align 8, !tbaa !3
  call void @_ZL11_LMBCSCloseP10UConverter(ptr noundef %71)
  store i32 1, ptr %13, align 4
  br label %82

72:                                               ; preds = %65
  %73 = load i8, ptr %8, align 1, !tbaa !15
  %74 = load ptr, ptr %9, align 8, !tbaa !8
  %75 = getelementptr inbounds nuw %struct.UConverterDataLMBCS, ptr %74, i32 0, i32 1
  store i8 %73, ptr %75, align 8, !tbaa !48
  %76 = load ptr, ptr %6, align 8, !tbaa !8
  %77 = getelementptr inbounds nuw %struct.UConverterLoadArgs, ptr %76, i32 0, i32 8
  %78 = load ptr, ptr %77, align 8, !tbaa !65
  %79 = call noundef zeroext i8 @_ZL15FindLMBCSLocalePKc(ptr noundef %78)
  %80 = load ptr, ptr %9, align 8, !tbaa !8
  %81 = getelementptr inbounds nuw %struct.UConverterDataLMBCS, ptr %80, i32 0, i32 2
  store i8 %79, ptr %81, align 1, !tbaa !44
  store i32 0, ptr %13, align 4
  br label %82

82:                                               ; preds = %72, %70
  call void @llvm.lifetime.end.p0(i64 1, ptr %12) #9
  call void @llvm.lifetime.end.p0(i64 40, ptr %11) #9
  call void @llvm.lifetime.end.p0(i64 224, ptr %10) #9
  %83 = load i32, ptr %13, align 4
  switch i32 %83, label %88 [
    i32 0, label %84
  ]

84:                                               ; preds = %82
  br label %87

85:                                               ; preds = %4
  %86 = load ptr, ptr %7, align 8, !tbaa !8
  store i32 7, ptr %86, align 4, !tbaa !26
  br label %87

87:                                               ; preds = %85, %84
  store i32 0, ptr %13, align 4
  br label %88

88:                                               ; preds = %87, %82
  call void @llvm.lifetime.end.p0(i64 8, ptr %9) #9
  %89 = load i32, ptr %13, align 4
  switch i32 %89, label %91 [
    i32 0, label %90
    i32 1, label %90
  ]

90:                                               ; preds = %88, %88
  ret void

91:                                               ; preds = %88
  unreachable
}